target datalayout = "e-m:e-p270:32:32-p271:32:32-p272:64:64-i64:64-i128:128-f80:128-n8:16:32:64-S128"
target triple = "x86_64-pc-linux-gnu"

; Function Attrs: nounwind uwtable
define double @distance_kD(ptr noundef %0, i32 noundef %1, i32 noundef %2, i32 noundef %3) #0 {
  %5 = alloca ptr, align 8
  %6 = alloca i32, align 4
  %7 = alloca i32, align 4
  %8 = alloca i32, align 4
  %9 = alloca double, align 8
  %10 = alloca i32, align 4
  store ptr %0, ptr %5, align 8, !tbaa !35
  store i32 %1, ptr %6, align 4, !tbaa !7
  store i32 %2, ptr %7, align 4, !tbaa !7
  store i32 %3, ptr %8, align 4, !tbaa !7
  call void @llvm.lifetime.start.p0(i64 8, ptr %9) #9
  store double 0.000000e+00, ptr %9, align 8, !tbaa !37
  call void @llvm.lifetime.start.p0(i64 4, ptr %10) #9
  store i32 0, ptr %10, align 4, !tbaa !7
  br label %11

11:                                               ; preds = %56, %4
  %12 = load i32, ptr %10, align 4, !tbaa !7
  %13 = load i32, ptr %6, align 4, !tbaa !7
  %14 = icmp slt i32 %12, %13
  br i1 %14, label %15, label %59

15:                                               ; preds = %11
  %16 = load ptr, ptr %5, align 8, !tbaa !35
  %17 = load i32, ptr %10, align 4, !tbaa !7
  %18 = sext i32 %17 to i64
  %19 = getelementptr inbounds ptr, ptr %16, i64 %18
  %20 = load ptr, ptr %19, align 8, !tbaa !39
  %21 = load i32, ptr %7, align 4, !tbaa !7
  %22 = sext i32 %21 to i64
  %23 = getelementptr inbounds double, ptr %20, i64 %22
  %24 = load double, ptr %23, align 8, !tbaa !37
  %25 = load ptr, ptr %5, align 8, !tbaa !35
  %26 = load i32, ptr %10, align 4, !tbaa !7
  %27 = sext i32 %26 to i64
  %28 = getelementptr inbounds ptr, ptr %25, i64 %27
  %29 = load ptr, ptr %28, align 8, !tbaa !39
  %30 = load i32, ptr %8, align 4, !tbaa !7
  %31 = sext i32 %30 to i64
  %32 = getelementptr inbounds double, ptr %29, i64 %31
  %33 = load double, ptr %32, align 8, !tbaa !37
  %34 = fsub double %24, %33
  %35 = load ptr, ptr %5, align 8, !tbaa !35
  %36 = load i32, ptr %10, align 4, !tbaa !7
  %37 = sext i32 %36 to i64
  %38 = getelementptr inbounds ptr, ptr %35, i64 %37
  %39 = load ptr, ptr %38, align 8, !tbaa !39
  %40 = load i32, ptr %7, align 4, !tbaa !7
  %41 = sext i32 %40 to i64
  %42 = getelementptr inbounds double, ptr %39, i64 %41
  %43 = load double, ptr %42, align 8, !tbaa !37
  %44 = load ptr, ptr %5, align 8, !tbaa !35
  %45 = load i32, ptr %10, align 4, !tbaa !7
  %46 = sext i32 %45 to i64
  %47 = getelementptr inbounds ptr, ptr %44, i64 %46
  %48 = load ptr, ptr %47, align 8, !tbaa !39
  %49 = load i32, ptr %8, align 4, !tbaa !7
  %50 = sext i32 %49 to i64
  %51 = getelementptr inbounds double, ptr %48, i64 %50
  %52 = load double, ptr %51, align 8, !tbaa !37
  %53 = fsub double %43, %52
  %54 = load double, ptr %9, align 8, !tbaa !37
  %55 = call double @llvm.fmuladd.f64(double %34, double %53, double %54)
  store double %55, ptr %9, align 8, !tbaa !37
  br label %56

56:                                               ; preds = %15
  %57 = load i32, ptr %10, align 4, !tbaa !7
  %58 = add nsw i32 %57, 1
  store i32 %58, ptr %10, align 4, !tbaa !7
  br label %11, !llvm.loop !41

59:                                               ; preds = %11
  %60 = load double, ptr %9, align 8, !tbaa !37
  %61 = call double @sqrt(double noundef %60) #9, !tbaa !7
  call void @llvm.lifetime.end.p0(i64 4, ptr %10) #9
  call void @llvm.lifetime.end.p0(i64 8, ptr %9) #9
  ret double %61
}