; Function Attrs: nofree nounwind memory(readwrite, inaccessiblemem: write) uwtable
define double @distance_kD(ptr noundef readonly captures(none) %0, i32 noundef %1, i32 noundef %2, i32 noundef %3) local_unnamed_addr #3 {
  %5 = icmp sgt i32 %1, 0
  br i1 %5, label %.lr.ph, label %._crit_edge

.lr.ph:                                           ; preds = %4
  %6 = sext i32 %2 to i64
  %7 = sext i32 %3 to i64
  %wide.trip.count = zext nneg i32 %1 to i64
  br label %8

8:                                                ; preds = %.lr.ph, %8
  %indvars.iv = phi i64 [ 0, %.lr.ph ], [ %indvars.iv.next, %8 ]
  %.01617 = phi double [ 0.000000e+00, %.lr.ph ], [ %16, %8 ]
  %9 = getelementptr inbounds nuw ptr, ptr %0, i64 %indvars.iv
  %10 = load ptr, ptr %9, align 8, !tbaa !32
  %11 = getelementptr inbounds double, ptr %10, i64 %6
  %12 = load double, ptr %11, align 8, !tbaa !34
  %13 = getelementptr inbounds double, ptr %10, i64 %7
  %14 = load double, ptr %13, align 8, !tbaa !34
  %15 = fsub double %12, %14
  %16 = tail call double @llvm.fmuladd.f64(double %15, double %15, double %.01617)
  %indvars.iv.next = add nuw nsw i64 %indvars.iv, 1
  %exitcond.not = icmp eq i64 %indvars.iv.next, %wide.trip.count
  br i1 %exitcond.not, label %._crit_edge, label %8, !llvm.loop !36

._crit_edge:                                      ; preds = %8, %4
  %.016.lcssa = phi double [ 0.000000e+00, %4 ], [ %16, %8 ]
  %17 = tail call double @sqrt(double noundef %.016.lcssa) #20, !tbaa !12
  ret double %17
}